; Function Attrs: mustprogress uwtable
define hidden void @_ZN4cvc58internal6theory22TheoryInferenceManager9safePointENS0_8ResourceE(ptr nocapture noundef nonnull readonly align 8 dereferenceable(256) %this, i32 noundef %r) local_unnamed_addr #3 align 2 {
entry:
  %d_out = getelementptr inbounds i8, ptr %this, i64 32
  %0 = load ptr, ptr %d_out, align 8
  %vtable = load ptr, ptr %0, align 8
  %vfn = getelementptr inbounds i8, ptr %vtable, i64 16
  %1 = load ptr, ptr %vfn, align 8
  tail call void %1(ptr noundef nonnull align 8 dereferenceable(100) %0, i32 noundef %r)
  ret void
}